target datalayout = "e-m:e-p270:32:32-p271:32:32-p272:64:64-i64:64-i128:128-f80:128-n8:16:32:64-S128"
target triple = "x86_64-pc-linux-gnu"

%struct.ProtocolVersion = type { i8, i8 }
%struct.WOLFSSL_METHOD = type { %struct.ProtocolVersion, i8, i8 }

; Function Attrs: nounwind uwtable
define ptr @wolfSSLv23_client_method_ex(ptr noundef %0) #0 {
  %2 = alloca ptr, align 8
  %3 = alloca ptr, align 8
  %4 = alloca %struct.ProtocolVersion, align 1
  store ptr %0, ptr %2, align 8, !tbaa !3
  call void @llvm.lifetime.start.p0(i64 8, ptr %3) #9
  %5 = call ptr @wolfSSL_Malloc(i64 noundef 4)
  store ptr %5, ptr %3, align 8, !tbaa !33
  br label %6

6:                                                ; preds = %1
  br label %7

7:                                                ; preds = %6
  br label %8

8:                                                ; preds = %7
  %9 = load ptr, ptr %3, align 8, !tbaa !33
  %10 = icmp ne ptr %9, null
  br i1 %10, label %11, label %17

11:                                               ; preds = %8
  %12 = load ptr, ptr %3, align 8, !tbaa !33
  %13 = call i16 @MakeTLSv1_3()
  store i16 %13, ptr %4, align 1
  %14 = load i16, ptr %4, align 1
  call void @InitSSL_Method(ptr noundef %12, i16 %14)
  %15 = load ptr, ptr %3, align 8, !tbaa !33
  %16 = getelementptr inbounds nuw %struct.WOLFSSL_METHOD, ptr %15, i32 0, i32 2
  store i8 1, ptr %16, align 1, !tbaa !257
  br label %17

17:                                               ; preds = %11, %8
  %18 = load ptr, ptr %3, align 8, !tbaa !33
  call void @llvm.lifetime.end.p0(i64 8, ptr %3) #9
  ret ptr %18
}